target datalayout = "e-m:e-p270:32:32-p271:32:32-p272:64:64-i64:64-i128:128-f80:128-n8:16:32:64-S128"
target triple = "x86_64-pc-linux-gnu"

%struct._zend_signal_globals_t = type { i32, i32, i32, i32, i8, i8, [65 x %struct._zend_signal_entry_t], [64 x %struct._zend_signal_queue_t], ptr, ptr, ptr }
%struct._zend_signal_entry_t = type { i32, ptr }
%struct._zend_signal_queue_t = type { %struct._zend_signal_t, ptr }
%struct._zend_signal_t = type { i32, ptr, ptr }

@zend_signal_globals = global %struct._zend_signal_globals_t zeroinitializer, align 8

; Function Attrs: nounwind uwtable
define hidden void @zend_signal_handler_defer(i32 noundef %0, ptr noundef %1, ptr noundef %2) #0 {
  %4 = alloca i32, align 4
  %5 = alloca ptr, align 8
  %6 = alloca ptr, align 8
  %7 = alloca i32, align 4
  %8 = alloca ptr, align 8
  %9 = alloca ptr, align 8
  store i32 %0, ptr %4, align 4
  store ptr %1, ptr %5, align 8
  store ptr %2, ptr %6, align 8
  %10 = call ptr @__errno_location() #7
  %11 = load i32, ptr %10, align 4
  store i32 %11, ptr %7, align 4
  %12 = load i32, ptr getelementptr inbounds (%struct._zend_signal_globals_t, ptr @zend_signal_globals, i32 0, i32 3), align 4
  %13 = icmp ne i32 %12, 0
  %14 = xor i1 %13, true
  %15 = xor i1 %14, true
  %16 = zext i1 %15 to i32
  %17 = sext i32 %16 to i64
  %18 = icmp ne i64 %17, 0
  br i1 %18, label %19, label %114

19:                                               ; preds = %3
  %20 = load i32, ptr @zend_signal_globals, align 8
  %21 = icmp eq i32 %20, 0
  %22 = xor i1 %21, true
  %23 = xor i1 %22, true
  %24 = zext i1 %23 to i32
  %25 = sext i32 %24 to i64
  %26 = icmp ne i64 %25, 0
  br i1 %26, label %27, label %78

27:                                               ; preds = %19
  %28 = load i32, ptr getelementptr inbounds (%struct._zend_signal_globals_t, ptr @zend_signal_globals, i32 0, i32 1), align 4
  %29 = icmp ne i32 %28, 0
  %30 = xor i1 %29, true
  %31 = xor i1 %30, true
  %32 = zext i1 %31 to i32
  %33 = sext i32 %32 to i64
  %34 = icmp ne i64 %33, 0
  br i1 %34, label %35, label %36

35:                                               ; preds = %27
  store i32 0, ptr getelementptr inbounds (%struct._zend_signal_globals_t, ptr @zend_signal_globals, i32 0, i32 1), align 4
  br label %36

36:                                               ; preds = %35, %27
  %37 = load i32, ptr getelementptr inbounds (%struct._zend_signal_globals_t, ptr @zend_signal_globals, i32 0, i32 2), align 8
  %38 = icmp eq i32 %37, 0
  %39 = xor i1 %38, true
  %40 = xor i1 %39, true
  %41 = zext i1 %40 to i32
  %42 = sext i32 %41 to i64
  %43 = icmp ne i64 %42, 0
  br i1 %43, label %44, label %77

44:                                               ; preds = %36
  store i32 1, ptr getelementptr inbounds (%struct._zend_signal_globals_t, ptr @zend_signal_globals, i32 0, i32 2), align 8
  %45 = load i32, ptr %4, align 4
  %46 = load ptr, ptr %5, align 8
  %47 = load ptr, ptr %6, align 8
  call void @zend_signal_handler(i32 noundef %45, ptr noundef %46, ptr noundef %47)
  %48 = load ptr, ptr getelementptr inbounds (%struct._zend_signal_globals_t, ptr @zend_signal_globals, i32 0, i32 8), align 8
  store ptr %48, ptr %8, align 8
  store ptr null, ptr getelementptr inbounds (%struct._zend_signal_globals_t, ptr @zend_signal_globals, i32 0, i32 8), align 8
  br label %49

49:                                               ; preds = %52, %44
  %50 = load ptr, ptr %8, align 8
  %51 = icmp ne ptr %50, null
  br i1 %51, label %52, label %76

52:                                               ; preds = %49
  %53 = load ptr, ptr %8, align 8
  %54 = getelementptr inbounds %struct._zend_signal_queue_t, ptr %53, i32 0, i32 0
  %55 = getelementptr inbounds %struct._zend_signal_t, ptr %54, i32 0, i32 0
  %56 = load i32, ptr %55, align 8
  %57 = load ptr, ptr %8, align 8
  %58 = getelementptr inbounds %struct._zend_signal_queue_t, ptr %57, i32 0, i32 0
  %59 = getelementptr inbounds %struct._zend_signal_t, ptr %58, i32 0, i32 1
  %60 = load ptr, ptr %59, align 8
  %61 = load ptr, ptr %8, align 8
  %62 = getelementptr inbounds %struct._zend_signal_queue_t, ptr %61, i32 0, i32 0
  %63 = getelementptr inbounds %struct._zend_signal_t, ptr %62, i32 0, i32 2
  %64 = load ptr, ptr %63, align 8
  call void @zend_signal_handler(i32 noundef %56, ptr noundef %60, ptr noundef %64)
  %65 = load ptr, ptr %8, align 8
  %66 = getelementptr inbounds %struct._zend_signal_queue_t, ptr %65, i32 0, i32 1
  %67 = load ptr, ptr %66, align 8
  store ptr %67, ptr %9, align 8
  %68 = load ptr, ptr getelementptr inbounds (%struct._zend_signal_globals_t, ptr @zend_signal_globals, i32 0, i32 10), align 8
  %69 = load ptr, ptr %8, align 8
  %70 = getelementptr inbounds %struct._zend_signal_queue_t, ptr %69, i32 0, i32 1
  store ptr %68, ptr %70, align 8
  %71 = load ptr, ptr %8, align 8
  %72 = getelementptr inbounds %struct._zend_signal_queue_t, ptr %71, i32 0, i32 0
  %73 = getelementptr inbounds %struct._zend_signal_t, ptr %72, i32 0, i32 0
  store i32 0, ptr %73, align 8
  %74 = load ptr, ptr %8, align 8
  store ptr %74, ptr getelementptr inbounds (%struct._zend_signal_globals_t, ptr @zend_signal_globals, i32 0, i32 10), align 8
  %75 = load ptr, ptr %9, align 8
  store ptr %75, ptr %8, align 8
  br label %49

76:                                               ; preds = %49
  store i32 0, ptr getelementptr inbounds (%struct._zend_signal_globals_t, ptr @zend_signal_globals, i32 0, i32 2), align 8
  br label %77

77:                                               ; preds = %76, %36
  br label %113

78:                                               ; preds = %19
  store i32 1, ptr getelementptr inbounds (%struct._zend_signal_globals_t, ptr @zend_signal_globals, i32 0, i32 1), align 4
  %79 = load ptr, ptr getelementptr inbounds (%struct._zend_signal_globals_t, ptr @zend_signal_globals, i32 0, i32 10), align 8
  store ptr %79, ptr %8, align 8
  %80 = icmp ne ptr %79, null
  br i1 %80, label %81, label %112

81:                                               ; preds = %78
  %82 = load ptr, ptr %8, align 8
  %83 = getelementptr inbounds %struct._zend_signal_queue_t, ptr %82, i32 0, i32 1
  %84 = load ptr, ptr %83, align 8
  store ptr %84, ptr getelementptr inbounds (%struct._zend_signal_globals_t, ptr @zend_signal_globals, i32 0, i32 10), align 8
  %85 = load i32, ptr %4, align 4
  %86 = load ptr, ptr %8, align 8
  %87 = getelementptr inbounds %struct._zend_signal_queue_t, ptr %86, i32 0, i32 0
  %88 = getelementptr inbounds %struct._zend_signal_t, ptr %87, i32 0, i32 0
  store i32 %85, ptr %88, align 8
  %89 = load ptr, ptr %5, align 8
  %90 = load ptr, ptr %8, align 8
  %91 = getelementptr inbounds %struct._zend_signal_queue_t, ptr %90, i32 0, i32 0
  %92 = getelementptr inbounds %struct._zend_signal_t, ptr %91, i32 0, i32 1
  store ptr %89, ptr %92, align 8
  %93 = load ptr, ptr %6, align 8
  %94 = load ptr, ptr %8, align 8
  %95 = getelementptr inbounds %struct._zend_signal_queue_t, ptr %94, i32 0, i32 0
  %96 = getelementptr inbounds %struct._zend_signal_t, ptr %95, i32 0, i32 2
  store ptr %93, ptr %96, align 8
  %97 = load ptr, ptr %8, align 8
  %98 = getelementptr inbounds %struct._zend_signal_queue_t, ptr %97, i32 0, i32 1
  store ptr null, ptr %98, align 8
  %99 = load ptr, ptr getelementptr inbounds (%struct._zend_signal_globals_t, ptr @zend_signal_globals, i32 0, i32 8), align 8
  %100 = icmp ne ptr %99, null
  br i1 %100, label %101, label %108

101:                                              ; preds = %81
  %102 = load ptr, ptr getelementptr inbounds (%struct._zend_signal_globals_t, ptr @zend_signal_globals, i32 0, i32 9), align 8
  %103 = icmp ne ptr %102, null
  br i1 %103, label %104, label %108

104:                                              ; preds = %101
  %105 = load ptr, ptr %8, align 8
  %106 = load ptr, ptr getelementptr inbounds (%struct._zend_signal_globals_t, ptr @zend_signal_globals, i32 0, i32 9), align 8
  %107 = getelementptr inbounds %struct._zend_signal_queue_t, ptr %106, i32 0, i32 1
  store ptr %105, ptr %107, align 8
  br label %110

108:                                              ; preds = %101, %81
  %109 = load ptr, ptr %8, align 8
  store ptr %109, ptr getelementptr inbounds (%struct._zend_signal_globals_t, ptr @zend_signal_globals, i32 0, i32 8), align 8
  br label %110

110:                                              ; preds = %108, %104
  %111 = load ptr, ptr %8, align 8
  store ptr %111, ptr getelementptr inbounds (%struct._zend_signal_globals_t, ptr @zend_signal_globals, i32 0, i32 9), align 8
  br label %112

112:                                              ; preds = %110, %78
  br label %113

113:                                              ; preds = %112, %77
  br label %118

114:                                              ; preds = %3
  %115 = load i32, ptr %4, align 4
  %116 = load ptr, ptr %5, align 8
  %117 = load ptr, ptr %6, align 8
  call void @zend_signal_handler(i32 noundef %115, ptr noundef %116, ptr noundef %117)
  br label %118

118:                                              ; preds = %114, %113
  %119 = load i32, ptr %7, align 4
  %120 = call ptr @__errno_location() #7
  store i32 %119, ptr %120, align 4
  ret void
}