; Function Attrs: nounwind uwtable
define hidden void @zend_signal_handler_defer(i32 noundef %0, ptr noundef %1, ptr noundef %2) #0 {
  %4 = tail call ptr @__errno_location() #8
  %5 = load i32, ptr %4, align 4
  %6 = load i32, ptr getelementptr inbounds (%struct._zend_signal_globals_t, ptr @zend_signal_globals, i64 0, i32 3), align 4
  %.not = icmp eq i32 %6, 0
  br i1 %.not, label %38, label %7

7:                                                ; preds = %3
  %8 = load i32, ptr @zend_signal_globals, align 8
  %9 = icmp eq i32 %8, 0
  br i1 %9, label %10, label %26

10:                                               ; preds = %7
  %11 = load i32, ptr getelementptr inbounds (%struct._zend_signal_globals_t, ptr @zend_signal_globals, i64 0, i32 1), align 4
  %.not30 = icmp eq i32 %11, 0
  br i1 %.not30, label %13, label %12

12:                                               ; preds = %10
  store i32 0, ptr getelementptr inbounds (%struct._zend_signal_globals_t, ptr @zend_signal_globals, i64 0, i32 1), align 4
  br label %13

13:                                               ; preds = %12, %10
  %14 = load i32, ptr getelementptr inbounds (%struct._zend_signal_globals_t, ptr @zend_signal_globals, i64 0, i32 2), align 8
  %15 = icmp eq i32 %14, 0
  br i1 %15, label %16, label %39

16:                                               ; preds = %13
  store i32 1, ptr getelementptr inbounds (%struct._zend_signal_globals_t, ptr @zend_signal_globals, i64 0, i32 2), align 8
  tail call fastcc void @zend_signal_handler(i32 noundef %0, ptr noundef %1, ptr noundef %2)
  %17 = load ptr, ptr getelementptr inbounds (%struct._zend_signal_globals_t, ptr @zend_signal_globals, i64 0, i32 8), align 8
  store ptr null, ptr getelementptr inbounds (%struct._zend_signal_globals_t, ptr @zend_signal_globals, i64 0, i32 8), align 8
  %.not3132 = icmp eq ptr %17, null
  br i1 %.not3132, label %._crit_edge, label %.lr.ph

.lr.ph:                                           ; preds = %16, %.lr.ph
  %.033 = phi ptr [ %24, %.lr.ph ], [ %17, %16 ]
  %18 = load i32, ptr %.033, align 8
  %19 = getelementptr inbounds i8, ptr %.033, i64 8
  %20 = load ptr, ptr %19, align 8
  %21 = getelementptr inbounds i8, ptr %.033, i64 16
  %22 = load ptr, ptr %21, align 8
  tail call fastcc void @zend_signal_handler(i32 noundef %18, ptr noundef %20, ptr noundef %22)
  %23 = getelementptr inbounds i8, ptr %.033, i64 24
  %24 = load ptr, ptr %23, align 8
  %25 = load ptr, ptr getelementptr inbounds (%struct._zend_signal_globals_t, ptr @zend_signal_globals, i64 0, i32 10), align 8
  store ptr %25, ptr %23, align 8
  store i32 0, ptr %.033, align 8
  store ptr %.033, ptr getelementptr inbounds (%struct._zend_signal_globals_t, ptr @zend_signal_globals, i64 0, i32 10), align 8
  %.not31 = icmp eq ptr %24, null
  br i1 %.not31, label %._crit_edge, label %.lr.ph

._crit_edge:                                      ; preds = %.lr.ph, %16
  store i32 0, ptr getelementptr inbounds (%struct._zend_signal_globals_t, ptr @zend_signal_globals, i64 0, i32 2), align 8
  br label %39

26:                                               ; preds = %7
  store i32 1, ptr getelementptr inbounds (%struct._zend_signal_globals_t, ptr @zend_signal_globals, i64 0, i32 1), align 4
  %27 = load ptr, ptr getelementptr inbounds (%struct._zend_signal_globals_t, ptr @zend_signal_globals, i64 0, i32 10), align 8
  %.not29 = icmp eq ptr %27, null
  br i1 %.not29, label %39, label %28

28:                                               ; preds = %26
  %29 = getelementptr inbounds i8, ptr %27, i64 24
  %30 = load ptr, ptr %29, align 8
  store ptr %30, ptr getelementptr inbounds (%struct._zend_signal_globals_t, ptr @zend_signal_globals, i64 0, i32 10), align 8
  store i32 %0, ptr %27, align 8
  %31 = getelementptr inbounds i8, ptr %27, i64 8
  store ptr %1, ptr %31, align 8
  %32 = getelementptr inbounds i8, ptr %27, i64 16
  store ptr %2, ptr %32, align 8
  store ptr null, ptr %29, align 8
  %33 = load ptr, ptr getelementptr inbounds (%struct._zend_signal_globals_t, ptr @zend_signal_globals, i64 0, i32 8), align 8
  %34 = icmp ne ptr %33, null
  %35 = load ptr, ptr getelementptr inbounds (%struct._zend_signal_globals_t, ptr @zend_signal_globals, i64 0, i32 9), align 8
  %36 = icmp ne ptr %35, null
  %or.cond = select i1 %34, i1 %36, i1 false
  %37 = getelementptr inbounds i8, ptr %35, i64 24
  %.sink = select i1 %or.cond, ptr %37, ptr getelementptr inbounds (%struct._zend_signal_globals_t, ptr @zend_signal_globals, i64 0, i32 8)
  store ptr %27, ptr %.sink, align 8
  store ptr %27, ptr getelementptr inbounds (%struct._zend_signal_globals_t, ptr @zend_signal_globals, i64 0, i32 9), align 8
  br label %39

38:                                               ; preds = %3
  tail call fastcc void @zend_signal_handler(i32 noundef %0, ptr noundef %1, ptr noundef %2)
  br label %39

39:                                               ; preds = %._crit_edge, %13, %28, %26, %38
  store i32 %5, ptr %4, align 4
  ret void
}